; Function Attrs: nounwind uwtable
define internal void @help(ptr noundef %0) #3 {
  %2 = tail call i32 (ptr, ...) @pg_printf(ptr noundef nonnull @.str.26, ptr noundef %0) #7
  %3 = tail call i32 (ptr, ...) @pg_printf(ptr noundef nonnull @.str.27) #7
  %4 = tail call i32 (ptr, ...) @pg_printf(ptr noundef nonnull @.str.28, ptr noundef %0) #7
  %5 = tail call i32 (ptr, ...) @pg_printf(ptr noundef nonnull @.str.29) #7
  %6 = tail call i32 (ptr, ...) @pg_printf(ptr noundef nonnull @.str.30) #7
  %7 = tail call i32 (ptr, ...) @pg_printf(ptr noundef nonnull @.str.31) #7
  %8 = tail call i32 (ptr, ...) @pg_printf(ptr noundef nonnull @.str.32) #7
  %9 = tail call i32 (ptr, ...) @pg_printf(ptr noundef nonnull @.str.33) #7
  %10 = tail call i32 (ptr, ...) @pg_printf(ptr noundef nonnull @.str.34) #7
  %11 = tail call i32 (ptr, ...) @pg_printf(ptr noundef nonnull @.str.35) #7
  %12 = tail call i32 (ptr, ...) @pg_printf(ptr noundef nonnull @.str.36) #7
  %13 = tail call i32 (ptr, ...) @pg_printf(ptr noundef nonnull @.str.37, ptr noundef nonnull @.str) #7
  %14 = tail call i32 (ptr, ...) @pg_printf(ptr noundef nonnull @.str.38) #7
  %15 = tail call i32 (ptr, ...) @pg_printf(ptr noundef nonnull @.str.39, ptr noundef nonnull @.str.40) #7
  %16 = tail call i32 (ptr, ...) @pg_printf(ptr noundef nonnull @.str.41, ptr noundef nonnull @.str.42, ptr noundef nonnull @.str.43) #7
  ret void
}